; Function Attrs: nounwind uwtable
define hidden ptr @luaM_realloc_(ptr noundef %0, ptr noundef %1, i64 noundef %2, i64 noundef %3) local_unnamed_addr #0 {
  %5 = getelementptr inbounds nuw i8, ptr %0, i64 24
  %6 = load ptr, ptr %5, align 8, !tbaa !9
  %7 = load ptr, ptr %6, align 8, !tbaa !22
  %8 = getelementptr inbounds nuw i8, ptr %6, i64 8
  %9 = load ptr, ptr %8, align 8, !tbaa !29
  %10 = tail call ptr %7(ptr noundef %9, ptr noundef %1, i64 noundef %2, i64 noundef %3) #6
  %11 = icmp eq ptr %10, null
  %12 = icmp ne i64 %3, 0
  %13 = and i1 %12, %11
  br i1 %13, label %14, label %17, !prof !30

14:                                               ; preds = %4
  %15 = tail call fastcc ptr @tryagain(ptr noundef nonnull %0, ptr noundef %1, i64 noundef %2, i64 noundef %3)
  %16 = icmp eq ptr %15, null
  br i1 %16, label %21, label %17

17:                                               ; preds = %14, %4
  %.017 = phi ptr [ %15, %14 ], [ %10, %4 ]
  %.neg = sub i64 %2, %3
  %18 = getelementptr inbounds nuw i8, ptr %6, i64 24
  %19 = load i64, ptr %18, align 8, !tbaa !31
  %20 = add i64 %.neg, %19
  store i64 %20, ptr %18, align 8, !tbaa !31
  br label %21

21:                                               ; preds = %14, %17
  %.0 = phi ptr [ %.017, %17 ], [ null, %14 ]
  ret ptr %.0
}